(dp1
S'output'
p2
S"<class 'sqlite3.OperationalError'> no such table: auth_group"
p3
sS'layer'
p4
S'C:\\Users\\s\\Documents\\py\\web2py\\applications\\crm\\controllers/default.py'
p5
sS'code'
p6
S'""" controllers for the crm application that are not table specific """\nexclude=[]\nimport os\nimport glob\nimport datetime\nimport logging as log\nimport datasetup\n\ndef back():\n    """ back to last page """\n    if not session.history or len(session.history)< 2: return\n    session.history.pop()\n    redirect(session.history.pop())\n\ndef clean():\n    os.system(\'cls\')\n    redirect(URL(a=\'admin\', c=\'default\', f=\'cleanup\', args=[request.application]))\n\ndef delete():\n    """ delete all data tables """\n    datasetup.delete(db, request.folder)\n    redirect("index")\n\ndef populate():\n    """ populate db for testing """\n    datasetup.populate(db, web, testimages)\n    redirect("index")\n\ndef index():\n    redirect(URL(c=\'customer\', f=\'grid\'))\n\ndef user():\n    """\n    exposes:\n    http://..../[app]/default/user/login\n    http://..../[app]/default/user/logout\n    http://..../[app]/default/user/register\n    http://..../[app]/default/user/profile\n    http://..../[app]/default/user/retrieve_password\n    http://..../[app]/default/user/change_password\n    use @auth.requires_login()\n        @auth.requires_membership(\'group name\')\n        @auth.requires_permission(\'read\',\'table name\',record_id)\n    to decorate functions that need access control\n    """\n    return dict(form=auth())\n\n\ndef download():\n    """\n    allows downloading of uploaded files\n    http://..../[app]/default/download/[filename]\n    """\n    return response.download(request,db)\n\ndef call():\n    """\n    exposes services. for example:\n    http://..../[app]/default/call/jsonrpc\n    decorate with @services.jsonrpc the functions to expose\n    supports xml, json, xmlrpc, jsonrpc, amfrpc, rss, csv\n    """\n    session.forget()\n    return service()\nresponse._vars=response._caller(user)\n'
p7
sS'snapshot'
p8
(dp9
S'exception'
p10
(dp11
S'__module__'
p12
S"'sqlite3'"
p13
sS'__getslice__'
p14
S"<method-wrapper '__getslice__' of OperationalError object>"
p15
sS'__str__'
p16
S"<method-wrapper '__str__' of OperationalError object>"
p17
sS'__reduce__'
p18
S'<built-in method __reduce__ of OperationalError object>'
p19
sS'__dict__'
p20
S'{}'
p21
sS'__sizeof__'
p22
S'<built-in method __sizeof__ of OperationalError object>'
p23
sS'__weakref__'
p24
S'None'
p25
sS'__init__'
p26
S"<method-wrapper '__init__' of OperationalError object>"
p27
sS'__setattr__'
p28
S"<method-wrapper '__setattr__' of OperationalError object>"
p29
sS'__reduce_ex__'
p30
S'<built-in method __reduce_ex__ of OperationalError object>'
p31
sS'__new__'
p32
S'<built-in method __new__ of type object>'
p33
sS'__format__'
p34
S'<built-in method __format__ of OperationalError object>'
p35
sS'__class__'
p36
S"<class 'sqlite3.OperationalError'>"
p37
sS'__doc__'
p38
S'None'
p39
sS'__getitem__'
p40
S"<method-wrapper '__getitem__' of OperationalError object>"
p41
sS'__setstate__'
p42
S'<built-in method __setstate__ of OperationalError object>'
p43
sS'__getattribute__'
p44
S"<method-wrapper '__getattribute__' of OperationalError object>"
p45
sS'args'
p46
S"('no such table: auth_group',)"
p47
sS'__subclasshook__'
p48
S'<built-in method __subclasshook__ of type object>'
p49
sS'__unicode__'
p50
S'<built-in method __unicode__ of OperationalError object>'
p51
sS'__delattr__'
p52
S"<method-wrapper '__delattr__' of OperationalError object>"
p53
sS'__repr__'
p54
S"<method-wrapper '__repr__' of OperationalError object>"
p55
sS'__hash__'
p56
S"<method-wrapper '__hash__' of OperationalError object>"
p57
ssS'evalue'
p58
S'no such table: auth_group'
p59
sS'request'
p60
cgluon.html
XML_unpickle
p61
(S's\xcdx\x00\x00<div><table><tr><td style="font-weight:bold;vertical-align:top;">ajax</td><td style="vertical-align:top;">:</td><td><div>False</div></td></tr><tr><td style="font-weight:bold;vertical-align:top;">application</td><td style="vertical-align:top;">:</td><td><div>crm</div></td></tr><tr><td style="font-weight:bold;vertical-align:top;">args</td><td style="vertical-align:top;">:</td><td><div><table><tr><td><div>register</div></td></tr></table></div></td></tr><tr><td style="font-weight:bold;vertical-align:top;">cid</td><td style="vertical-align:top;">:</td><td><div>None</div></td></tr><tr><td style="font-weight:bold;vertical-align:top;">client</td><td style="vertical-align:top;">:</td><td><div>127.0.0.1</div></td></tr><tr><td style="font-weight:bold;vertical-align:top;">controller</td><td style="vertical-align:top;">:</td><td><div>default</div></td></tr><tr><td style="font-weight:bold;vertical-align:top;">cookies</td><td style="vertical-align:top;">:</td><td><div><table><tr><td style="font-weight:bold;vertical-align:top;">SOFTCookies164_sid</td><td style="vertical-align:top;">:</td><td><div>PIoIwvvQJezSfSmGy1S7gfp89UqnXInd<table><tr><td style="font-weight:bold;vertical-align:top;">comment</td><td style="vertical-align:top;">:</td><td><div></div></td></tr><tr><td style="font-weight:bold;vertical-align:top;">domain</td><td style="vertical-align:top;">:</td><td><div></div></td></tr><tr><td style="font-weight:bold;vertical-align:top;">expires</td><td style="vertical-align:top;">:</td><td><div></div></td></tr><tr><td style="font-weight:bold;vertical-align:top;">httponly</td><td style="vertical-align:top;">:</td><td><div></div></td></tr><tr><td style="font-weight:bold;vertical-align:top;">max-age</td><td style="vertical-align:top;">:</td><td><div></div></td></tr><tr><td style="font-weight:bold;vertical-align:top;">path</td><td style="vertical-align:top;">:</td><td><div></div></td></tr><tr><td style="font-weight:bold;vertical-align:top;">secure</td><td style="vertical-align:top;">:</td><td><div></div></td></tr><tr><td style="font-weight:bold;vertical-align:top;">version</td><td style="vertical-align:top;">:</td><td><div></div></td></tr></table></div></td></tr><tr><td style="font-weight:bold;vertical-align:top;">session_id_admin</td><td style="vertical-align:top;">:</td><td><div>127.0.0.1-fff80fb0-d486-4ea6-b5da-d64ed0dbdbf6<table><tr><td style="font-weight:bold;vertical-align:top;">comment</td><td style="vertical-align:top;">:</td><td><div></div></td></tr><tr><td style="font-weight:bold;vertical-align:top;">domain</td><td style="vertical-align:top;">:</td><td><div></div></td></tr><tr><td style="font-weight:bold;vertical-align:top;">expires</td><td style="vertical-align:top;">:</td><td><div></div></td></tr><tr><td style="font-weight:bold;vertical-align:top;">httponly</td><td style="vertical-align:top;">:</td><td><div></div></td></tr><tr><td style="font-weight:bold;vertical-align:top;">max-age</td><td style="vertical-align:top;">:</td><td><div></div></td></tr><tr><td style="font-weight:bold;vertical-align:top;">path</td><td style="vertical-align:top;">:</td><td><div></div></td></tr><tr><td style="font-weight:bold;vertical-align:top;">secure</td><td style="vertical-align:top;">:</td><td><div></div></td></tr><tr><td style="font-weight:bold;vertical-align:top;">version</td><td style="vertical-align:top;">:</td><td><div></div></td></tr></table></div></td></tr><tr><td style="font-weight:bold;vertical-align:top;">session_id_crm</td><td style="vertical-align:top;">:</td><td><div>127.0.0.1-4ec0c9e6-a746-49f8-921f-1bb9eff9b182<table><tr><td style="font-weight:bold;vertical-align:top;">comment</td><td style="vertical-align:top;">:</td><td><div></div></td></tr><tr><td style="font-weight:bold;vertical-align:top;">domain</td><td style="vertical-align:top;">:</td><td><div></div></td></tr><tr><td style="font-weight:bold;vertical-align:top;">expires</td><td style="vertical-align:top;">:</td><td><div></div></td></tr><tr><td style="font-weight:bold;vertical-align:top;">httponly</td><td style="vertical-align:top;">:</td><td><div></div></td></tr><tr><td style="font-weight:bold;vertical-align:top;">max-age</td><td style="vertical-align:top;">:</td><td><div></div></td></tr><tr><td style="font-weight:bold;vertical-align:top;">path</td><td style="vertical-align:top;">:</td><td><div></div></td></tr><tr><td style="font-weight:bold;vertical-align:top;">secure</td><td style="vertical-align:top;">:</td><td><div></div></td></tr><tr><td style="font-weight:bold;vertical-align:top;">version</td><td style="vertical-align:top;">:</td><td><div></div></td></tr></table></div></td></tr><tr><td style="font-weight:bold;vertical-align:top;">session_id_plugin_attachment</td><td style="vertical-align:top;">:</td><td><div>127.0.0.1-ffc1edad-7294-459f-8107-a220d4ba7b09<table><tr><td style="font-weight:bold;vertical-align:top;">comment</td><td style="vertical-align:top;">:</td><td><div></div></td></tr><tr><td style="font-weight:bold;vertical-align:top;">domain</td><td style="vertical-align:top;">:</td><td><div></div></td></tr><tr><td style="font-weight:bold;vertical-align:top;">expires</td><td style="vertical-align:top;">:</td><td><div></div></td></tr><tr><td style="font-weight:bold;vertical-align:top;">httponly</td><td style="vertical-align:top;">:</td><td><div></div></td></tr><tr><td style="font-weight:bold;vertical-align:top;">max-age</td><td style="vertical-align:top;">:</td><td><div></div></td></tr><tr><td style="font-weight:bold;vertical-align:top;">path</td><td style="vertical-align:top;">:</td><td><div></div></td></tr><tr><td style="font-weight:bold;vertical-align:top;">secure</td><td style="vertical-align:top;">:</td><td><div></div></td></tr><tr><td style="font-weight:bold;vertical-align:top;">version</td><td style="vertical-align:top;">:</td><td><div></div></td></tr></table></div></td></tr><tr><td style="font-weight:bold;vertical-align:top;">session_id_plugin_dialog</td><td style="vertical-align:top;">:</td><td><div>127.0.0.1-4b202669-a564-4b20-ba92-065b704370a6<table><tr><td style="font-weight:bold;vertical-align:top;">comment</td><td style="vertical-align:top;">:</td><td><div></div></td></tr><tr><td style="font-weight:bold;vertical-align:top;">domain</td><td style="vertical-align:top;">:</td><td><div></div></td></tr><tr><td style="font-weight:bold;vertical-align:top;">expires</td><td style="vertical-align:top;">:</td><td><div></div></td></tr><tr><td style="font-weight:bold;vertical-align:top;">httponly</td><td style="vertical-align:top;">:</td><td><div></div></td></tr><tr><td style="font-weight:bold;vertical-align:top;">max-age</td><td style="vertical-align:top;">:</td><td><div></div></td></tr><tr><td style="font-weight:bold;vertical-align:top;">path</td><td style="vertical-align:top;">:</td><td><div></div></td></tr><tr><td style="font-weight:bold;vertical-align:top;">secure</td><td style="vertical-align:top;">:</td><td><div></div></td></tr><tr><td style="font-weight:bold;vertical-align:top;">version</td><td style="vertical-align:top;">:</td><td><div></div></td></tr></table></div></td></tr><tr><td style="font-weight:bold;vertical-align:top;">session_id_welcome</td><td style="vertical-align:top;">:</td><td><div>127.0.0.1-8590990a-a590-40f1-ad12-323ffb4532c6<table><tr><td style="font-weight:bold;vertical-align:top;">comment</td><td style="vertical-align:top;">:</td><td><div></div></td></tr><tr><td style="font-weight:bold;vertical-align:top;">domain</td><td style="vertical-align:top;">:</td><td><div></div></td></tr><tr><td style="font-weight:bold;vertical-align:top;">expires</td><td style="vertical-align:top;">:</td><td><div></div></td></tr><tr><td style="font-weight:bold;vertical-align:top;">httponly</td><td style="vertical-align:top;">:</td><td><div></div></td></tr><tr><td style="font-weight:bold;vertical-align:top;">max-age</td><td style="vertical-align:top;">:</td><td><div></div></td></tr><tr><td style="font-weight:bold;vertical-align:top;">path</td><td style="vertical-align:top;">:</td><td><div></div></td></tr><tr><td style="font-weight:bold;vertical-align:top;">secure</td><td style="vertical-align:top;">:</td><td><div></div></td></tr><tr><td style="font-weight:bold;vertical-align:top;">version</td><td style="vertical-align:top;">:</td><td><div></div></td></tr></table></div></td></tr></table></div></td></tr><tr><td style="font-weight:bold;vertical-align:top;">env</td><td style="vertical-align:top;">:</td><td><div><table><tr><td style="font-weight:bold;vertical-align:top;">CONTENT_LENGTH</td><td style="vertical-align:top;">:</td><td><div>901</div></td></tr><tr><td style="font-weight:bold;vertical-align:top;">CONTENT_TYPE</td><td style="vertical-align:top;">:</td><td><div>multipart/form-data; boundary=----WebKitFormBoundarypvYXbFlJtL3WoUIv</div></td></tr><tr><td style="font-weight:bold;vertical-align:top;">HTTP_ACCEPT</td><td style="vertical-align:top;">:</td><td><div>text/html,application/xhtml+xml,application/xml;q=0.9,image/webp,*/*;q=0.8</div></td></tr><tr><td style="font-weight:bold;vertical-align:top;">HTTP_ACCEPT_ENCODING</td><td style="vertical-align:top;">:</td><td><div>gzip, deflate</div></td></tr><tr><td style="font-weight:bold;vertical-align:top;">HTTP_ACCEPT_LANGUAGE</td><td style="vertical-align:top;">:</td><td><div>en-US,en;q=0.8</div></td></tr><tr><td style="font-weight:bold;vertical-align:top;">HTTP_CACHE_CONTROL</td><td style="vertical-align:top;">:</td><td><div>max-age=0</div></td></tr><tr><td style="font-weight:bold;vertical-align:top;">HTTP_CONNECTION</td><td style="vertical-align:top;">:</td><td><div>keep-alive</div></td></tr><tr><td style="font-weight:bold;vertical-align:top;">HTTP_CONTENT_LENGTH</td><td style="vertical-align:top;">:</td><td><div>901</div></td></tr><tr><td style="font-weight:bold;vertical-align:top;">HTTP_CONTENT_TYPE</td><td style="vertical-align:top;">:</td><td><div>multipart/form-data; boundary=----WebKitFormBoundarypvYXbFlJtL3WoUIv</div></td></tr><tr><td style="font-weight:bold;vertical-align:top;">HTTP_COOKIE</td><td style="vertical-align:top;">:</td><td><div>session_id_plugin_dialog=127.0.0.1-4b202669-a564-4b20-ba92-065b704370a6; SOFTCookies164_sid=PIoIwvvQJezSfSmGy1S7gfp89UqnXInd; session_id_welcome=127.0.0.1-8590990a-a590-40f1-ad12-323ffb4532c6; session_id_plugin_attachment=127.0.0.1-ffc1edad-7294-459f-8107-a220d4ba7b09; session_id_admin=127.0.0.1-fff80fb0-d486-4ea6-b5da-d64ed0dbdbf6; session_id_crm=127.0.0.1-4ec0c9e6-a746-49f8-921f-1bb9eff9b182</div></td></tr><tr><td style="font-weight:bold;vertical-align:top;">HTTP_HOST</td><td style="vertical-align:top;">:</td><td><div>localhost:8000</div></td></tr><tr><td style="font-weight:bold;vertical-align:top;">HTTP_ORIGIN</td><td style="vertical-align:top;">:</td><td><div>http://localhost:8000</div></td></tr><tr><td style="font-weight:bold;vertical-align:top;">HTTP_REFERER</td><td style="vertical-align:top;">:</td><td><div>http://localhost:8000/crm/default/user/register</div></td></tr><tr><td style="font-weight:bold;vertical-align:top;">HTTP_UPGRADE_INSECURE_REQUESTS</td><td style="vertical-align:top;">:</td><td><div>1</div></td></tr><tr><td style="font-weight:bold;vertical-align:top;">HTTP_USER_AGENT</td><td style="vertical-align:top;">:</td><td><div>Mozilla/5.0 (Windows NT 10.0; WOW64) AppleWebKit/537.36 (KHTML, like Gecko) Chrome/48.0.2564.116 Safari/537.36</div></td></tr><tr><td style="font-weight:bold;vertical-align:top;">PATH_INFO</td><td style="vertical-align:top;">:</td><td><div>/crm/default/user/register</div></td></tr><tr><td style="font-weight:bold;vertical-align:top;">QUERY_STRING</td><td style="vertical-align:top;">:</td><td><div></div></td></tr><tr><td style="font-weight:bold;vertical-align:top;">REMOTE_ADDR</td><td style="vertical-align:top;">:</td><td><div>127.0.0.1</div></td></tr><tr><td style="font-weight:bold;vertical-align:top;">REMOTE_PORT</td><td style="vertical-align:top;">:</td><td><div>60793</div></td></tr><tr><td style="font-weight:bold;vertical-align:top;">REQUEST_METHOD</td><td style="vertical-align:top;">:</td><td><div>POST</div></td></tr><tr><td style="font-weight:bold;vertical-align:top;">SCRIPT_NAME</td><td style="vertical-align:top;">:</td><td><div></div></td></tr><tr><td style="font-weight:bold;vertical-align:top;">SERVER_NAME</td><td style="vertical-align:top;">:</td><td><div>s-PC</div></td></tr><tr><td style="font-weight:bold;vertical-align:top;">SERVER_PORT</td><td style="vertical-align:top;">:</td><td><div>8000</div></td></tr><tr><td style="font-weight:bold;vertical-align:top;">SERVER_PROTOCOL</td><td style="vertical-align:top;">:</td><td><div>HTTP/1.1</div></td></tr><tr><td style="font-weight:bold;vertical-align:top;">SERVER_SOFTWARE</td><td style="vertical-align:top;">:</td><td><div>Rocket 1.2.6</div></td></tr><tr><td style="font-weight:bold;vertical-align:top;">app_folders</td><td style="vertical-align:top;">:</td><td><div>set([&#x27;C:\\\\Users\\\\s\\\\Documents\\\\py\\\\web2py\\\\applications\\\\plugin_attachment\\\\&#x27;, &#x27;C:\\\\Users\\\\s\\\\Documents\\\\py\\\\web2py\\\\applications\\\\admin\\\\&#x27;, &#x27;C:\\\\Users\\\\s\\\\Documents\\\\py\\\\web2py\\\\applications\\\\welcome\\\\&#x27;, &#x27;C:\\\\Users\\\\s\\\\Documents\\\\py\\\\web2py\\\\applications\\\\crm\\\\&#x27;])</div></td></tr><tr><td style="font-weight:bold;vertical-align:top;">applications_parent</td><td style="vertical-align:top;">:</td><td><div>C:\\Users\\s\\Documents\\py\\web2py</div></td></tr><tr><td style="font-weight:bold;vertical-align:top;">cmd_args</td><td style="vertical-align:top;">:</td><td><div><table></table></div></td></tr><tr><td style="font-weight:bold;vertical-align:top;">cmd_options</td><td style="vertical-align:top;">:</td><td><div>&lt;Values at 0x5b23cc8: {&#x27;verbose&#x27;: False, &#x27;ip&#x27;: &#x27;127.0.0.1&#x27;, &#x27;debuglevel&#x27;: 30, &#x27;with_scheduler&#x27;: False, &#x27;ips&#x27;: [&#x27;fd24:1fa0:84e7:5900:fc6c:6285:a8e0:370&#x27;, &#x27;fe80::fc6c:6285:a8e0:370%10&#x27;, &#x27;fe80::3082:8b04:356d:f882%15&#x27;, &#x27;192.168.1.3&#x27;, &#x27;fd24:1fa0:84e7:5900:3858:be73:ead4:c6e1&#x27;, &#x27;192.168.56.1&#x27;], &#x27;shutdown_timeout&#x27;: 5, &#x27;taskbar&#x27;: False, &#x27;with_coverage&#x27;: False, &#x27;scheduler_groups&#x27;: None, &#x27;port&#x27;: 8000, &#x27;maxthreads&#x27;: None, &#x27;softcron&#x27;: False, &#x27;server_name&#x27;: &#x27;s-PC&#x27;, &#x27;bpython&#x27;: False, &#x27;nogui&#x27;: False, &#x27;pid_filename&#x27;: &#x27;httpserver.pid&#x27;, &#x27;print_errors&#x27;: False, &#x27;extcron&#x27;: False, &#x27;runcron&#x27;: False, &#x27;run_system_tests&#x27;: False, &#x27;test&#x27;: None, &#x27;folder&#x27;: &#x27;C:\\\\Users\\\\s\\\\Documents\\\\py\\\\web2py&#x27;, &#x27;config&#x27;: &#x27;&#x27;, &#x27;minthreads&#x27;: None, &#x27;shell&#x27;: None, &#x27;run&#x27;: &#x27;&#x27;, &#x27;log_filename&#x27;: &#x27;httpserver.log&#x27;, &#x27;profiler_dir&#x27;: None, &#x27;args&#x27;: [&#x27;&#x27;], &#x27;socket_timeout&#x27;: 5, &#x27;ssl_ca_certificate&#x27;: None, &#x27;scheduler&#x27;: None, &#x27;interfaces&#x27;: None, &#x27;ssl_private_key&#x27;: &#x27;&#x27;, &#x27;gae&#x27;: None, &#x27;password&#x27;: &#x27;&lt;ask&gt;&#x27;, &#x27;request_queue_size&#x27;: 5, &#x27;ssl_certificate&#x27;: &#x27;&#x27;, &#x27;cronjob&#x27;: False, &#x27;numthreads&#x27;: None, &#x27;quiet&#x27;: False, &#x27;import_models&#x27;: False, &#x27;timeout&#x27;: 10, &#x27;plain&#x27;: False, &#x27;nobanner&#x27;: False}&gt;</div></td></tr><tr><td style="font-weight:bold;vertical-align:top;">content_length</td><td style="vertical-align:top;">:</td><td><div>901</div></td></tr><tr><td style="font-weight:bold;vertical-align:top;">content_type</td><td style="vertical-align:top;">:</td><td><div>multipart/form-data; boundary=----WebKitFormBoundarypvYXbFlJtL3WoUIv</div></td></tr><tr><td style="font-weight:bold;vertical-align:top;">db_sessions</td><td style="vertical-align:top;">:</td><td><div>set([])</div></td></tr><tr><td style="font-weight:bold;vertical-align:top;">debugging</td><td style="vertical-align:top;">:</td><td><div>False</div></td></tr><tr><td style="font-weight:bold;vertical-align:top;">gluon_parent</td><td style="vertical-align:top;">:</td><td><div>C:\\Users\\s\\Documents\\py\\web2py</div></td></tr><tr><td style="font-weight:bold;vertical-align:top;">http_accept</td><td style="vertical-align:top;">:</td><td><div>text/html,application/xhtml+xml,application/xml;q=0.9,image/webp,*/*;q=0.8</div></td></tr><tr><td style="font-weight:bold;vertical-align:top;">http_accept_encoding</td><td style="vertical-align:top;">:</td><td><div>gzip, deflate</div></td></tr><tr><td style="font-weight:bold;vertical-align:top;">http_accept_language</td><td style="vertical-align:top;">:</td><td><div>en-US,en;q=0.8</div></td></tr><tr><td style="font-weight:bold;vertical-align:top;">http_cache_control</td><td style="vertical-align:top;">:</td><td><div>max-age=0</div></td></tr><tr><td style="font-weight:bold;vertical-align:top;">http_connection</td><td style="vertical-align:top;">:</td><td><div>keep-alive</div></td></tr><tr><td style="font-weight:bold;vertical-align:top;">http_content_length</td><td style="vertical-align:top;">:</td><td><div>901</div></td></tr><tr><td style="font-weight:bold;vertical-align:top;">http_content_type</td><td style="vertical-align:top;">:</td><td><div>multipart/form-data; boundary=----WebKitFormBoundarypvYXbFlJtL3WoUIv</div></td></tr><tr><td style="font-weight:bold;vertical-align:top;">http_cookie</td><td style="vertical-align:top;">:</td><td><div>session_id_plugin_dialog=127.0.0.1-4b202669-a564-4b20-ba92-065b704370a6; SOFTCookies164_sid=PIoIwvvQJezSfSmGy1S7gfp89UqnXInd; session_id_welcome=127.0.0.1-8590990a-a590-40f1-ad12-323ffb4532c6; session_id_plugin_attachment=127.0.0.1-ffc1edad-7294-459f-8107-a220d4ba7b09; session_id_admin=127.0.0.1-fff80fb0-d486-4ea6-b5da-d64ed0dbdbf6; session_id_crm=127.0.0.1-4ec0c9e6-a746-49f8-921f-1bb9eff9b182</div></td></tr><tr><td style="font-weight:bold;vertical-align:top;">http_host</td><td style="vertical-align:top;">:</td><td><div>localhost:8000</div></td></tr><tr><td style="font-weight:bold;vertical-align:top;">http_origin</td><td style="vertical-align:top;">:</td><td><div>http://localhost:8000</div></td></tr><tr><td style="font-weight:bold;vertical-align:top;">http_referer</td><td style="vertical-align:top;">:</td><td><div>http://localhost:8000/crm/default/user/register</div></td></tr><tr><td style="font-weight:bold;vertical-align:top;">http_upgrade_insecure_requests</td><td style="vertical-align:top;">:</td><td><div>1</div></td></tr><tr><td style="font-weight:bold;vertical-align:top;">http_user_agent</td><td style="vertical-align:top;">:</td><td><div>Mozilla/5.0 (Windows NT 10.0; WOW64) AppleWebKit/537.36 (KHTML, like Gecko) Chrome/48.0.2564.116 Safari/537.36</div></td></tr><tr><td style="font-weight:bold;vertical-align:top;">is_jython</td><td style="vertical-align:top;">:</td><td><div>False</div></td></tr><tr><td style="font-weight:bold;vertical-align:top;">is_pypy</td><td style="vertical-align:top;">:</td><td><div>False</div></td></tr><tr><td style="font-weight:bold;vertical-align:top;">is_source</td><td style="vertical-align:top;">:</td><td><div>True</div></td></tr><tr><td style="font-weight:bold;vertical-align:top;">local_hosts</td><td style="vertical-align:top;">:</td><td><div><table><tr><td><div>fe80::fc6c:6285:a8e0:370%10</div></td></tr><tr><td><div>s-PC</div></td></tr><tr><td><div>fd24:1fa0:84e7:5900:fc6c:6285:a8e0:370</div></td></tr><tr><td><div>fe80::3082:8b04:356d:f882%15</div></td></tr><tr><td><div>::ffff:127.0.0.1</div></td></tr><tr><td><div>::1</div></td></tr><tr><td><div>192.168.1.3</div></td></tr><tr><td><div>fd24:1fa0:84e7:5900:3858:be73:ead4:c6e1</div></td></tr><tr><td><div>127.0.0.1</div></td></tr><tr><td><div>192.168.56.1</div></td></tr></table></div></td></tr><tr><td style="font-weight:bold;vertical-align:top;">path_info</td><td style="vertical-align:top;">:</td><td><div>/crm/default/user/register</div></td></tr><tr><td style="font-weight:bold;vertical-align:top;">query_string</td><td style="vertical-align:top;">:</td><td><div></div></td></tr><tr><td style="font-weight:bold;vertical-align:top;">remote_addr</td><td style="vertical-align:top;">:</td><td><div>127.0.0.1</div></td></tr><tr><td style="font-weight:bold;vertical-align:top;">remote_port</td><td style="vertical-align:top;">:</td><td><div>60793</div></td></tr><tr><td style="font-weight:bold;vertical-align:top;">request_method</td><td style="vertical-align:top;">:</td><td><div>POST</div></td></tr><tr><td style="font-weight:bold;vertical-align:top;">request_uri</td><td style="vertical-align:top;">:</td><td><div>/crm/default/user/register</div></td></tr><tr><td style="font-weight:bold;vertical-align:top;">script_name</td><td style="vertical-align:top;">:</td><td><div></div></td></tr><tr><td style="font-weight:bold;vertical-align:top;">server_name</td><td style="vertical-align:top;">:</td><td><div>s-PC</div></td></tr><tr><td style="font-weight:bold;vertical-align:top;">server_port</td><td style="vertical-align:top;">:</td><td><div>8000</div></td></tr><tr><td style="font-weight:bold;vertical-align:top;">server_protocol</td><td style="vertical-align:top;">:</td><td><div>HTTP/1.1</div></td></tr><tr><td style="font-weight:bold;vertical-align:top;">server_software</td><td style="vertical-align:top;">:</td><td><div>Rocket 1.2.6</div></td></tr><tr><td style="font-weight:bold;vertical-align:top;">web2py_path</td><td style="vertical-align:top;">:</td><td><div>C:\\Users\\s\\Documents\\py\\web2py</div></td></tr><tr><td style="font-weight:bold;vertical-align:top;">web2py_version</td><td style="vertical-align:top;">:</td><td><div>2.13.4-stable+timestamp.2016.02.10.15.41.11</div></td></tr><tr><td style="font-weight:bold;vertical-align:top;">wsgi.errors</td><td style="vertical-align:top;">:</td><td><div>&lt;open file &#x27;&lt;stderr&gt;&#x27;, mode &#x27;w&#x27; at 0x000000000419B150&gt;</div></td></tr><tr><td style="font-weight:bold;vertical-align:top;">wsgi.file_wrapper</td><td style="vertical-align:top;">:</td><td><div>&lt;class wsgiref.util.FileWrapper at 0x0000000005AC6EE8&gt;</div></td></tr><tr><td style="font-weight:bold;vertical-align:top;">wsgi.input</td><td style="vertical-align:top;">:</td><td><div>&lt;socket._fileobject object at 0x0000000007D621B0&gt;</div></td></tr><tr><td style="font-weight:bold;vertical-align:top;">wsgi.multiprocess</td><td style="vertical-align:top;">:</td><td><div>False</div></td></tr><tr><td style="font-weight:bold;vertical-align:top;">wsgi.multithread</td><td style="vertical-align:top;">:</td><td><div>True</div></td></tr><tr><td style="font-weight:bold;vertical-align:top;">wsgi.run_once</td><td style="vertical-align:top;">:</td><td><div>False</div></td></tr><tr><td style="font-weight:bold;vertical-align:top;">wsgi.url_scheme</td><td style="vertical-align:top;">:</td><td><div>http</div></td></tr><tr><td style="font-weight:bold;vertical-align:top;">wsgi.version</td><td style="vertical-align:top;">:</td><td><div><table><tr><td><div>1</div></td></tr><tr><td><div>0</div></td></tr></table></div></td></tr><tr><td style="font-weight:bold;vertical-align:top;">wsgi_errors</td><td style="vertical-align:top;">:</td><td><div>&lt;open file &#x27;&lt;stderr&gt;&#x27;, mode &#x27;w&#x27; at 0x000000000419B150&gt;</div></td></tr><tr><td style="font-weight:bold;vertical-align:top;">wsgi_file_wrapper</td><td style="vertical-align:top;">:</td><td><div>&lt;class wsgiref.util.FileWrapper at 0x0000000005AC6EE8&gt;</div></td></tr><tr><td style="font-weight:bold;vertical-align:top;">wsgi_input</td><td style="vertical-align:top;">:</td><td><div>&lt;socket._fileobject object at 0x0000000007D621B0&gt;</div></td></tr><tr><td style="font-weight:bold;vertical-align:top;">wsgi_multiprocess</td><td style="vertical-align:top;">:</td><td><div>False</div></td></tr><tr><td style="font-weight:bold;vertical-align:top;">wsgi_multithread</td><td style="vertical-align:top;">:</td><td><div>True</div></td></tr><tr><td style="font-weight:bold;vertical-align:top;">wsgi_run_once</td><td style="vertical-align:top;">:</td><td><div>False</div></td></tr><tr><td style="font-weight:bold;vertical-align:top;">wsgi_url_scheme</td><td style="vertical-align:top;">:</td><td><div>http</div></td></tr><tr><td style="font-weight:bold;vertical-align:top;">wsgi_version</td><td style="vertical-align:top;">:</td><td><div><table><tr><td><div>1</div></td></tr><tr><td><div>0</div></td></tr></table></div></td></tr></table></div></td></tr><tr><td style="font-weight:bold;vertical-align:top;">extension</td><td style="vertical-align:top;">:</td><td><div>html</div></td></tr><tr><td style="font-weight:bold;vertical-align:top;">folder</td><td style="vertical-align:top;">:</td><td><div>C:\\Users\\s\\Documents\\py\\web2py\\applications\\crm\\</div></td></tr><tr><td style="font-weight:bold;vertical-align:top;">function</td><td style="vertical-align:top;">:</td><td><div>user</div></td></tr><tr><td style="font-weight:bold;vertical-align:top;">global_settings</td><td style="vertical-align:top;">:</td><td><div><table><tr><td style="font-weight:bold;vertical-align:top;">app_folders</td><td style="vertical-align:top;">:</td><td><div>set([&#x27;C:\\\\Users\\\\s\\\\Documents\\\\py\\\\web2py\\\\applications\\\\plugin_attachment\\\\&#x27;, &#x27;C:\\\\Users\\\\s\\\\Documents\\\\py\\\\web2py\\\\applications\\\\admin\\\\&#x27;, &#x27;C:\\\\Users\\\\s\\\\Documents\\\\py\\\\web2py\\\\applications\\\\welcome\\\\&#x27;, &#x27;C:\\\\Users\\\\s\\\\Documents\\\\py\\\\web2py\\\\applications\\\\crm\\\\&#x27;])</div></td></tr><tr><td style="font-weight:bold;vertical-align:top;">applications_parent</td><td style="vertical-align:top;">:</td><td><div>C:\\Users\\s\\Documents\\py\\web2py</div></td></tr><tr><td style="font-weight:bold;vertical-align:top;">cmd_args</td><td style="vertical-align:top;">:</td><td><div><table></table></div></td></tr><tr><td style="font-weight:bold;vertical-align:top;">cmd_options</td><td style="vertical-align:top;">:</td><td><div>&lt;Values at 0x5b23cc8: {&#x27;verbose&#x27;: False, &#x27;ip&#x27;: &#x27;127.0.0.1&#x27;, &#x27;debuglevel&#x27;: 30, &#x27;with_scheduler&#x27;: False, &#x27;ips&#x27;: [&#x27;fd24:1fa0:84e7:5900:fc6c:6285:a8e0:370&#x27;, &#x27;fe80::fc6c:6285:a8e0:370%10&#x27;, &#x27;fe80::3082:8b04:356d:f882%15&#x27;, &#x27;192.168.1.3&#x27;, &#x27;fd24:1fa0:84e7:5900:3858:be73:ead4:c6e1&#x27;, &#x27;192.168.56.1&#x27;], &#x27;shutdown_timeout&#x27;: 5, &#x27;taskbar&#x27;: False, &#x27;with_coverage&#x27;: False, &#x27;scheduler_groups&#x27;: None, &#x27;port&#x27;: 8000, &#x27;maxthreads&#x27;: None, &#x27;softcron&#x27;: False, &#x27;server_name&#x27;: &#x27;s-PC&#x27;, &#x27;bpython&#x27;: False, &#x27;nogui&#x27;: False, &#x27;pid_filename&#x27;: &#x27;httpserver.pid&#x27;, &#x27;print_errors&#x27;: False, &#x27;extcron&#x27;: False, &#x27;runcron&#x27;: False, &#x27;run_system_tests&#x27;: False, &#x27;test&#x27;: None, &#x27;folder&#x27;: &#x27;C:\\\\Users\\\\s\\\\Documents\\\\py\\\\web2py&#x27;, &#x27;config&#x27;: &#x27;&#x27;, &#x27;minthreads&#x27;: None, &#x27;shell&#x27;: None, &#x27;run&#x27;: &#x27;&#x27;, &#x27;log_filename&#x27;: &#x27;httpserver.log&#x27;, &#x27;profiler_dir&#x27;: None, &#x27;args&#x27;: [&#x27;&#x27;], &#x27;socket_timeout&#x27;: 5, &#x27;ssl_ca_certificate&#x27;: None, &#x27;scheduler&#x27;: None, &#x27;interfaces&#x27;: None, &#x27;ssl_private_key&#x27;: &#x27;&#x27;, &#x27;gae&#x27;: None, &#x27;password&#x27;: &#x27;&lt;ask&gt;&#x27;, &#x27;request_queue_size&#x27;: 5, &#x27;ssl_certificate&#x27;: &#x27;&#x27;, &#x27;cronjob&#x27;: False, &#x27;numthreads&#x27;: None, &#x27;quiet&#x27;: False, &#x27;import_models&#x27;: False, &#x27;timeout&#x27;: 10, &#x27;plain&#x27;: False, &#x27;nobanner&#x27;: False}&gt;</div></td></tr><tr><td style="font-weight:bold;vertical-align:top;">db_sessions</td><td style="vertical-align:top;">:</td><td><div>set([])</div></td></tr><tr><td style="font-weight:bold;vertical-align:top;">debugging</td><td style="vertical-align:top;">:</td><td><div>False</div></td></tr><tr><td style="font-weight:bold;vertical-align:top;">gluon_parent</td><td style="vertical-align:top;">:</td><td><div>C:\\Users\\s\\Documents\\py\\web2py</div></td></tr><tr><td style="font-weight:bold;vertical-align:top;">is_jython</td><td style="vertical-align:top;">:</td><td><div>False</div></td></tr><tr><td style="font-weight:bold;vertical-align:top;">is_pypy</td><td style="vertical-align:top;">:</td><td><div>False</div></td></tr><tr><td style="font-weight:bold;vertical-align:top;">is_source</td><td style="vertical-align:top;">:</td><td><div>True</div></td></tr><tr><td style="font-weight:bold;vertical-align:top;">local_hosts</td><td style="vertical-align:top;">:</td><td><div><table><tr><td><div>fe80::fc6c:6285:a8e0:370%10</div></td></tr><tr><td><div>s-PC</div></td></tr><tr><td><div>fd24:1fa0:84e7:5900:fc6c:6285:a8e0:370</div></td></tr><tr><td><div>fe80::3082:8b04:356d:f882%15</div></td></tr><tr><td><div>::ffff:127.0.0.1</div></td></tr><tr><td><div>::1</div></td></tr><tr><td><div>192.168.1.3</div></td></tr><tr><td><div>fd24:1fa0:84e7:5900:3858:be73:ead4:c6e1</div></td></tr><tr><td><div>127.0.0.1</div></td></tr><tr><td><div>192.168.56.1</div></td></tr></table></div></td></tr><tr><td style="font-weight:bold;vertical-align:top;">web2py_version</td><td style="vertical-align:top;">:</td><td><div>2.13.4-stable+timestamp.2016.02.10.15.41.11</div></td></tr></table></div></td></tr><tr><td style="font-weight:bold;vertical-align:top;">is_https</td><td style="vertical-align:top;">:</td><td><div>False</div></td></tr><tr><td style="font-weight:bold;vertical-align:top;">is_local</td><td style="vertical-align:top;">:</td><td><div>True</div></td></tr><tr><td style="font-weight:bold;vertical-align:top;">is_restful</td><td style="vertical-align:top;">:</td><td><div>False</div></td></tr><tr><td style="font-weight:bold;vertical-align:top;">is_scheduler</td><td style="vertical-align:top;">:</td><td><div>False</div></td></tr><tr><td style="font-weight:bold;vertical-align:top;">is_shell</td><td style="vertical-align:top;">:</td><td><div>False</div></td></tr><tr><td style="font-weight:bold;vertical-align:top;">now</td><td style="vertical-align:top;">:</td><td><div>datetime.datetime(2016, 3, 6, 17, 48, 32, 695000)</div></td></tr><tr><td style="font-weight:bold;vertical-align:top;">raw_args</td><td style="vertical-align:top;">:</td><td><div>register</div></td></tr><tr><td style="font-weight:bold;vertical-align:top;">raw_extension</td><td style="vertical-align:top;">:</td><td><div>None</div></td></tr><tr><td style="font-weight:bold;vertical-align:top;">url</td><td style="vertical-align:top;">:</td><td><div>/crm/default/user/register</div></td></tr><tr><td style="font-weight:bold;vertical-align:top;">utcnow</td><td style="vertical-align:top;">:</td><td><div>datetime.datetime(2016, 3, 6, 17, 48, 32, 695000)</div></td></tr><tr><td style="font-weight:bold;vertical-align:top;">wsgi</td><td style="vertical-align:top;">:</td><td><div>&lt;gluon.main.LazyWSGI object at 0x000000000D2EAEF0&gt;</div></td></tr></table></div>'
tRp62
sS'frames'
p63
(lp64
(dp65
S'file'
p66
S'C:\\Users\\s\\Documents\\py\\web2py\\gluon\\restricted.py'
p67
sS'dump'
p68
(dp69
S'environment'
p70
S"{'A': <class 'gluon.html.A'>, 'ANY_OF': <class 'gluon.validators.ANY_OF'>, 'ASSIGNJS': <function ASSIGNJS>, 'Auth': <class 'gluon.tools.Auth'>, 'B': <class 'gluon.html.B'>, 'BEAUTIFY': <class 'gluon.html.BEAUTIFY'>, 'BODY': <class 'gluon.html.BODY'>, 'BR': <class 'gluon.html.BR'>, 'BUTTON': <class 'gluon.html.BUTTON'>, 'CAT': <class 'gluon.html.CAT'>, ...}"
p71
sS'ccode'
p72
S'<code object <module> at 000000000DA8B530, file ...applications\\crm\\controllers/default.py", line 1>'
p73
ssS'lnum'
p74
I227
sS'lines'
p75
(dp76
I224
S'            ccode = code'
p77
sI225
S'        else:'
p78
sI226
S'            ccode = compile2(code, layer)'
p79
sI227
S'        exec ccode in environment'
p80
sI228
S'    except HTTP:'
p81
sI229
S'        raise'
p82
sI230
S'    except RestrictedError:'
p83
sI231
S'        # do not encapsulate (obfuscate) the original RestrictedError'
p84
sI222
S'    try:'
p85
sI223
S'        if isinstance(code, types.CodeType):'
p86
ssS'call'
p87
S'(code=\'""" controllers for the crm application that are... service()\\nresponse._vars=response._caller(user)\\n\', environment={\'A\': <class \'gluon.html.A\'>, \'ANY_OF\': <class \'gluon.validators.ANY_OF\'>, \'ASSIGNJS\': <function ASSIGNJS>, \'Auth\': <class \'gluon.tools.Auth\'>, \'B\': <class \'gluon.html.B\'>, \'BEAUTIFY\': <class \'gluon.html.BEAUTIFY\'>, \'BODY\': <class \'gluon.html.BODY\'>, \'BR\': <class \'gluon.html.BR\'>, \'BUTTON\': <class \'gluon.html.BUTTON\'>, \'CAT\': <class \'gluon.html.CAT\'>, ...}, layer=r\'C:\\Users\\s\\Documents\\py\\web2py\\applications\\crm\\controllers/default.py\')'
p88
sS'func'
p89
S'restricted'
p90
sa(dp91
g66
S'C:\\Users\\s\\Documents\\py\\web2py\\applications\\crm\\controllers\\default.py'
p92
sg68
(dp93
S'service'
p94
S'<gluon.tools.Service object>'
p95
ssg74
I65
sg75
(dp96
I64
S'    return service()'
p97
sI55
S''
sI56
S'def call():'
p98
sI57
S'    """'
p99
sI58
S'    exposes services. for example:'
p100
sI59
S'    http://..../[app]/default/call/jsonrpc'
p101
sI60
S'    decorate with @services.jsonrpc the functions to expose'
p102
sI61
S'    supports xml, json, xmlrpc, jsonrpc, amfrpc, rss, csv'
p103
sI62
S'    """'
p104
sI63
S'    session.forget()'
p105
ssg87
S'()'
p106
sg89
S'<module>'
p107
sa(dp108
g66
S'C:\\Users\\s\\Documents\\py\\web2py\\gluon\\globals.py'
p109
sg68
(dp110
S'self'
p111
S'undefined'
p112
sS'f'
S'<function user>'
p113
ssg74
I422
sg75
(dp114
I417
S"        self.flash = ''            # used by the default view layout"
p115
sI418
S'        self.meta = Storage()      # used by web2py_ajax.html'
p116
sI419
S'        self.menu = []             # used by the default view layout'
p117
sI420
S'        self.files = []            # used by web2py_ajax.html'
p118
sI421
S'        self._vars = None'
p119
sI422
S'        self._caller = lambda f: f()'
p120
sI423
S'        self._view_environment = None'
p121
sI424
S'        self._custom_commit = None'
p122
sI425
S'        self._custom_rollback = None'
p123
sI426
S"        self.generic_patterns = ['*']"
p124
ssg87
S'(f=<function user>)'
p125
sg89
S'<lambda>'
p126
sa(dp127
g66
S'C:\\Users\\s\\Documents\\py\\web2py\\applications\\crm\\controllers\\default.py'
p128
sg68
(dp129
sg74
I46
sg75
(dp130
I41
S'    use @auth.requires_login()'
p131
sI42
S"        @auth.requires_membership('group name')"
p132
sI43
S"        @auth.requires_permission('read','table name',record_id)"
p133
sI44
S'    to decorate functions that need access control'
p134
sI45
S'    """'
p135
sI46
S'    return dict(form=auth())'
p136
sI47
S''
sI48
S''
sI49
S'def download():'
p137
sI50
S'    """'
p138
ssg87
S'()'
p139
sg89
S'user'
p140
sa(dp141
g66
S'C:\\Users\\s\\Documents\\py\\web2py\\gluon\\tools.py'
p142
sg68
(dp143
S'self'
p144
S'<gluon.tools.Auth object>'
p145
sS'args'
p146
S"['register']"
p147
sS'builtingetattr'
p148
S'<built-in function getattr>'
p149
ssg74
I1919
sg75
(dp150
I1920
S"        elif args[0] == 'cas' and not self.settings.cas_provider:"
p151
sI1921
S"            if args(1) == self.settings.cas_actions['login']:"
p152
sI1922
S'                return self.cas_login(version=2)'
p153
sI1923
S"            elif args(1) == self.settings.cas_actions['validate']:"
p154
sI1914
S"                       'impersonate', 'not_authorized', 'confirm_registration',"
p155
sI1915
S"                       'bulk_register','manage_tokens','jwt'):"
p156
sI1916
S"            if len(request.args) >= 2 and args[0] == 'impersonate':"
p157
sI1917
S'                return getattr(self, args[0])(request.args[1])'
p158
sI1918
S'            else:'
p159
sI1919
S'                return getattr(self, args[0])()'
p160
ssg87
S'(self=<gluon.tools.Auth object>)'
p161
sg89
S'__call__'
p162
sa(dp163
g66
S'C:\\Users\\s\\Documents\\py\\web2py\\gluon\\tools.py'
p164
sg68
(dp165
S'form.vars'
p166
S"<Storage {'first_name': 'simon', 'last_name': 'm...f176d570edd2967e', 'email': 'simonm3@gmail.com'}>"
p167
sS'description'
p168
S"<lazyT 'Group uniquely assigned to user %(id)s'>"
p169
sS'form'
p170
S'<gluon.sqlhtml.SQLFORM object>'
p171
sS'self'
p172
S'<gluon.tools.Auth object>'
p173
sS'self.settings'
p174
S"<Storage {'verify_email_onaccept': [], 'register... 'retrieve_username_next': '/crm/default/index'}>"
p175
sS'self.settings.create_user_groups'
p176
S"'user_%(id)s'"
p177
ssg74
I3343
sg75
(dp178
I3338
S'                        onvalidation=onvalidation,'
p179
sI3339
S'                        hideerror=self.settings.hideerror):'
p180
sI3340
S'            description = self.messages.group_description % form.vars'
p181
sI3341
S'            if self.settings.create_user_groups:'
p182
sI3342
S'                group_id = self.add_group('
p183
sI3343
S'                    self.settings.create_user_groups % form.vars, description)'
p184
sI3344
S'                self.add_membership(group_id, form.vars.id)'
p185
sI3345
S'            if self.settings.everybody_group_id:'
p186
sI3346
S'                self.add_membership('
p187
sI3347
S'                    self.settings.everybody_group_id, form.vars.id)'
p188
ssg87
S"(self=<gluon.tools.Auth object>, next='/crm/default/index', onvalidation=[], onaccept=[], log='User %(id)s Registered')"
p189
sg89
S'register'
p190
sa(dp191
g66
S'C:\\Users\\s\\Documents\\py\\web2py\\gluon\\tools.py'
p192
sg68
(dp193
S'role'
p194
S"'user_1'"
p195
sS'description'
p196
S"<lazyT 'Group uniquely assigned to user %(id)s'>"
p197
ssg74
I4304
sg75
(dp198
I4299
S'        """'
p199
sI4300
S'        Creates a group associated to a role'
p200
sI4301
S'        """'
p201
sI4302
S''
sI4303
S'        group_id = self.table_group().insert('
p202
sI4304
S'            role=role, description=description)'
p203
sI4305
S"        self.log_event(self.messages['add_group_log'],"
p204
sI4306
S'                       dict(group_id=group_id, role=role))'
p205
sI4307
S'        return group_id'
p206
sI4308
S''
ssg87
S"(self=<gluon.tools.Auth object>, role='user_1', description=<lazyT 'Group uniquely assigned to user %(id)s'>)"
p207
sg89
S'add_group'
p208
sa(dp209
g66
S'C:\\Users\\s\\Anaconda3\\envs\\py2\\lib\\site-packages\\pydal\\objects.py'
p210
sg68
(dp211
S'self._listify'
p212
S'<bound method Table._listify of <Table auth_grou...,created_on,created_by,modified_on,modified_by)>>'
p213
sS'fields'
p214
S"{'created_by': <function lazy_user>, 'created_on': datetime.datetime(2016, 3, 6, 17, 48, 32, 695000), 'description': <lazyT 'Group uniquely assigned to user %(id)s'>, 'is_active': True, 'modified_by': <function lazy_user>, 'modified_on': datetime.datetime(2016, 3, 6, 17, 48, 32, 695000), 'role': 'user_1'}"
p215
sS'self'
p216
S'<Table auth_group (id,role,description,is_active,created_on,created_by,modified_on,modified_by)>'
p217
sS'ret'
p218
g112
sS'self._db._adapter'
p219
S'<pydal.adapters.sqlite.SQLiteAdapter object>'
p220
sS'self._db._adapter.insert'
p221
S'<bound method SQLiteAdapter.insert of <pydal.adapters.sqlite.SQLiteAdapter object>>'
p222
sS'self._db'
p223
S'<DAL uri="sqlite://storage.sqlite">'
p224
ssg74
I728
sg75
(dp225
I723
S'    def insert(self, **fields):'
p226
sI724
S'        fields = self._defaults(fields)'
p227
sI725
S'        self._attempt_upload(fields)'
p228
sI726
S'        if any(f(fields) for f in self._before_insert):'
p229
sI727
S'            return 0'
p230
sI728
S'        ret = self._db._adapter.insert(self, self._listify(fields))'
p231
sI729
S'        if ret and self._after_insert:'
p232
sI730
S'            fields = Row(fields)'
p233
sI731
S'            [f(fields, ret) for f in self._after_insert]'
p234
sI732
S'        return ret'
p235
ssg87
S"(self=<Table auth_group (id,role,description,is_active,created_on,created_by,modified_on,modified_by)>, **fields={'created_by': <function lazy_user>, 'created_on': datetime.datetime(2016, 3, 6, 17, 48, 32, 695000), 'description': <lazyT 'Group uniquely assigned to user %(id)s'>, 'is_active': True, 'modified_by': <function lazy_user>, 'modified_on': datetime.datetime(2016, 3, 6, 17, 48, 32, 695000), 'role': 'user_1'})"
p236
sg89
S'insert'
p237
sa(dp238
g66
S'C:\\Users\\s\\Anaconda3\\envs\\py2\\lib\\site-packages\\pydal\\adapters\\base.py'
p239
sg68
(dp240
S'e'
S"OperationalError('no such table: auth_group',)"
p241
ssg74
I746
sg75
(dp242
I741
S'            self.execute(query)'
p243
sI742
S'        except Exception:'
p244
sI743
S'            e = sys.exc_info()[1]'
p245
sI744
S"            if hasattr(table,'_on_insert_error'):"
p246
sI745
S'                return table._on_insert_error(table,fields,e)'
p247
sI746
S'            raise e'
p248
sI747
S"        if hasattr(table, '_primarykey'):"
p249
sI748
S'            mydict = dict([(k[0].name, k[1]) for k in fields if k[0].name in table._primarykey])'
p250
sI749
S'            if mydict != {}:'
p251
sI750
S'                return mydict'
p252
ssg87
S"(self=<pydal.adapters.sqlite.SQLiteAdapter object>, table=<Table auth_group (id,role,description,is_active,created_on,created_by,modified_on,modified_by)>, fields=[(<pydal.objects.Field object>, <function lazy_user>), (<pydal.objects.Field object>, <lazyT 'Group uniquely assigned to user %(id)s'>), (<pydal.objects.Field object>, True), (<pydal.objects.Field object>, <function lazy_user>), (<pydal.objects.Field object>, datetime.datetime(2016, 3, 6, 17, 48, 32, 695000)), (<pydal.objects.Field object>, 'user_1'), (<pydal.objects.Field object>, datetime.datetime(2016, 3, 6, 17, 48, 32, 695000))])"
p253
sg89
g237
sasS'pyver'
p254
S'Python 2.7.11: C:\\Users\\s\\Anaconda3\\envs\\py2\\python.exe (prefix: C:\\Users\\s\\Anaconda3\\envs\\py2)'
p255
sS'session'
p256
g61
(S's\xa0\x01\x00\x00<div><table><tr><td style="font-weight:bold;vertical-align:top;">flash</td><td style="vertical-align:top;">:</td><td><div>None</div></td></tr><tr><td style="font-weight:bold;vertical-align:top;">history</td><td style="vertical-align:top;">:</td><td><div><table><tr><td><div>/crm/default/user.html/login</div></td></tr><tr><td><div>/crm/default/user.html/register</div></td></tr></table></div></td></tr></table></div>'
tRp257
sS'etype'
p258
S"<class 'sqlite3.OperationalError'>"
p259
sS'date'
p260
S'Sun Mar 06 17:48:32 2016'
p261
sS'response'
p262
g61
(S's[\x1e\x00\x00<div><table><tr><td style="font-weight:bold;vertical-align:top;">body</td><td style="vertical-align:top;">:</td><td><div>&lt;cStringIO.StringO object at 0x000000000767D570&gt;</div></td></tr><tr><td style="font-weight:bold;vertical-align:top;">cookies</td><td style="vertical-align:top;">:</td><td><div><table><tr><td style="font-weight:bold;vertical-align:top;">session_id_crm</td><td style="vertical-align:top;">:</td><td><div>127.0.0.1-4ec0c9e6-a746-49f8-921f-1bb9eff9b182<table><tr><td style="font-weight:bold;vertical-align:top;">comment</td><td style="vertical-align:top;">:</td><td><div></div></td></tr><tr><td style="font-weight:bold;vertical-align:top;">domain</td><td style="vertical-align:top;">:</td><td><div></div></td></tr><tr><td style="font-weight:bold;vertical-align:top;">expires</td><td style="vertical-align:top;">:</td><td><div></div></td></tr><tr><td style="font-weight:bold;vertical-align:top;">httponly</td><td style="vertical-align:top;">:</td><td><div></div></td></tr><tr><td style="font-weight:bold;vertical-align:top;">max-age</td><td style="vertical-align:top;">:</td><td><div></div></td></tr><tr><td style="font-weight:bold;vertical-align:top;">path</td><td style="vertical-align:top;">:</td><td><div>/</div></td></tr><tr><td style="font-weight:bold;vertical-align:top;">secure</td><td style="vertical-align:top;">:</td><td><div></div></td></tr><tr><td style="font-weight:bold;vertical-align:top;">version</td><td style="vertical-align:top;">:</td><td><div></div></td></tr></table></div></td></tr></table></div></td></tr><tr><td style="font-weight:bold;vertical-align:top;">delimiters</td><td style="vertical-align:top;">:</td><td><div><table><tr><td><div>{{</div></td></tr><tr><td><div>}}</div></td></tr></table></div></td></tr><tr><td style="font-weight:bold;vertical-align:top;">files</td><td style="vertical-align:top;">:</td><td><div><table></table></div></td></tr><tr><td style="font-weight:bold;vertical-align:top;">flash</td><td style="vertical-align:top;">:</td><td><div></div></td></tr><tr><td style="font-weight:bold;vertical-align:top;">form_label_separator</td><td style="vertical-align:top;">:</td><td><div>: </div></td></tr><tr><td style="font-weight:bold;vertical-align:top;">formstyle</td><td style="vertical-align:top;">:</td><td><div>table3cols</div></td></tr><tr><td style="font-weight:bold;vertical-align:top;">generic_patterns</td><td style="vertical-align:top;">:</td><td><div><table><tr><td><div>*</div></td></tr></table></div></td></tr><tr><td style="font-weight:bold;vertical-align:top;">headers</td><td style="vertical-align:top;">:</td><td><div><table><tr><td style="font-weight:bold;vertical-align:top;">X-Powered-By</td><td style="vertical-align:top;">:</td><td><div>web2py</div></td></tr></table></div></td></tr><tr><td style="font-weight:bold;vertical-align:top;">menu</td><td style="vertical-align:top;">:</td><td><div><table><tr><td><div><table><tr><td><div>Clean</div></td></tr><tr><td><div>False</div></td></tr><tr><td><div>/crm/default/clean</div></td></tr></table></div></td></tr><tr><td><div><table><tr><td><div>Delete</div></td></tr><tr><td><div>False</div></td></tr><tr><td><div>/crm/default/delete</div></td></tr></table></div></td></tr><tr><td><div><table><tr><td><div>Populate</div></td></tr><tr><td><div>False</div></td></tr><tr><td><div>/crm/default/populate</div></td></tr></table></div></td></tr><tr><td><div><table><tr><td><div>Errors</div></td></tr><tr><td><div>False</div></td></tr><tr><td><div>/admin/default/errors.html/crm/old</div></td></tr></table></div></td></tr><tr><td><div><table><tr><td><div>Customers</div></td></tr><tr><td><div>False</div></td></tr><tr><td><div>/crm/customer/grid</div></td></tr></table></div></td></tr><tr><td><div><table><tr><td><div>Products</div></td></tr><tr><td><div>False</div></td></tr><tr><td><div>/crm/product/grid</div></td></tr></table></div></td></tr><tr><td><div><table><tr><td><div>Orders</div></td></tr><tr><td><div>False</div></td></tr><tr><td><div>/crm/salesorder/grid</div></td></tr></table></div></td></tr><tr><td><div><table><tr><td><div>Orderlines</div></td></tr><tr><td><div>False</div></td></tr><tr><td><div>/crm/orderline/grid</div></td></tr></table></div></td></tr><tr><td><div><table><tr><td><div>Payments</div></td></tr><tr><td><div>False</div></td></tr><tr><td><div>/crm/payment/grid</div></td></tr></table></div></td></tr><tr><td><div><table><tr><td><div>Events</div></td></tr><tr><td><div>False</div></td></tr><tr><td><div>/crm/event/grid</div></td></tr></table></div></td></tr></table></div></td></tr><tr><td style="font-weight:bold;vertical-align:top;">meta</td><td style="vertical-align:top;">:</td><td><div><table></table></div></td></tr><tr><td style="font-weight:bold;vertical-align:top;">models_to_run</td><td style="vertical-align:top;">:</td><td><div><table><tr><td><div>^\\w+\\.py$</div></td></tr><tr><td><div>^default/\\w+\\.py$</div></td></tr><tr><td><div>^default/user/\\w+\\.py$</div></td></tr></table></div></td></tr><tr><td style="font-weight:bold;vertical-align:top;">postprocessing</td><td style="vertical-align:top;">:</td><td><div><table></table></div></td></tr><tr><td style="font-weight:bold;vertical-align:top;">session_client</td><td style="vertical-align:top;">:</td><td><div>127.0.0.1</div></td></tr><tr><td style="font-weight:bold;vertical-align:top;">session_cookie_compression_level</td><td style="vertical-align:top;">:</td><td><div>None</div></td></tr><tr><td style="font-weight:bold;vertical-align:top;">session_cookie_expires</td><td style="vertical-align:top;">:</td><td><div>None</div></td></tr><tr><td style="font-weight:bold;vertical-align:top;">session_cookie_key</td><td style="vertical-align:top;">:</td><td><div>None</div></td></tr><tr><td style="font-weight:bold;vertical-align:top;">session_data_name</td><td style="vertical-align:top;">:</td><td><div>session_data_crm</div></td></tr><tr><td style="font-weight:bold;vertical-align:top;">session_file</td><td style="vertical-align:top;">:</td><td><div>&lt;open file &#x27;C:\\\\Users\\\\s\\\\Documents\\\\py\\\\web2py\\\\applications\\\\crm\\\\sessions\\\\1b6\\\\158\\\\127.0.0.1-4ec0c9e6-a746-49f8-921f-1bb9eff9b182&#x27;, mode &#x27;rb+&#x27; at 0x0000000006610AE0&gt;</div></td></tr><tr><td style="font-weight:bold;vertical-align:top;">session_filename</td><td style="vertical-align:top;">:</td><td><div>C:\\Users\\s\\Documents\\py\\web2py\\applications\\crm\\sessions\\127.0.0.1-4ec0c9e6-a746-49f8-921f-1bb9eff9b182</div></td></tr><tr><td style="font-weight:bold;vertical-align:top;">session_hash</td><td style="vertical-align:top;">:</td><td><div>3755ce334283b69287cbb8bda2613768</div></td></tr><tr><td style="font-weight:bold;vertical-align:top;">session_id</td><td style="vertical-align:top;">:</td><td><div>127.0.0.1-4ec0c9e6-a746-49f8-921f-1bb9eff9b182</div></td></tr><tr><td style="font-weight:bold;vertical-align:top;">session_id_name</td><td style="vertical-align:top;">:</td><td><div>session_id_crm</div></td></tr><tr><td style="font-weight:bold;vertical-align:top;">session_locked</td><td style="vertical-align:top;">:</td><td><div>True</div></td></tr><tr><td style="font-weight:bold;vertical-align:top;">session_masterapp</td><td style="vertical-align:top;">:</td><td><div>crm</div></td></tr><tr><td style="font-weight:bold;vertical-align:top;">session_new</td><td style="vertical-align:top;">:</td><td><div>False</div></td></tr><tr><td style="font-weight:bold;vertical-align:top;">session_storage_type</td><td style="vertical-align:top;">:</td><td><div>file</div></td></tr><tr><td style="font-weight:bold;vertical-align:top;">status</td><td style="vertical-align:top;">:</td><td><div>200</div></td></tr><tr><td style="font-weight:bold;vertical-align:top;">view</td><td style="vertical-align:top;">:</td><td><div>default/user.html</div></td></tr></table></div>'
tRp263
sS'locals'
p264
(dp265
S'query'
p266
S'"INSERT INTO auth_group(modified_by,description,i...-03-06 17:48:32\',\'user_1\',\'2016-03-06 17:48:32\');"'
p267
sS'self'
p268
S'<pydal.adapters.sqlite.SQLiteAdapter object>'
p269
sS'e'
S"OperationalError('no such table: auth_group',)"
p270
sS'fields'
p271
S"[(<pydal.objects.Field object>, <function lazy_user>), (<pydal.objects.Field object>, <lazyT 'Group uniquely assigned to user %(id)s'>), (<pydal.objects.Field object>, True), (<pydal.objects.Field object>, <function lazy_user>), (<pydal.objects.Field object>, datetime.datetime(2016, 3, 6, 17, 48, 32, 695000)), (<pydal.objects.Field object>, 'user_1'), (<pydal.objects.Field object>, datetime.datetime(2016, 3, 6, 17, 48, 32, 695000))]"
p272
sS'table'
p273
S'<Table auth_group (id,role,description,is_active,created_on,created_by,modified_on,modified_by)>'
p274
sssS'traceback'
p275
S'Traceback (most recent call last):\n  File "C:\\Users\\s\\Documents\\py\\web2py\\gluon\\restricted.py", line 227, in restricted\n    exec ccode in environment\n  File "C:\\Users\\s\\Documents\\py\\web2py\\applications\\crm\\controllers/default.py", line 65, in <module>\n  File "C:\\Users\\s\\Documents\\py\\web2py\\gluon\\globals.py", line 422, in <lambda>\n    self._caller = lambda f: f()\n  File "C:\\Users\\s\\Documents\\py\\web2py\\applications\\crm\\controllers/default.py", line 46, in user\n    return dict(form=auth())\n  File "C:\\Users\\s\\Documents\\py\\web2py\\gluon\\tools.py", line 1919, in __call__\n    return getattr(self, args[0])()\n  File "C:\\Users\\s\\Documents\\py\\web2py\\gluon\\tools.py", line 3343, in register\n    self.settings.create_user_groups % form.vars, description)\n  File "C:\\Users\\s\\Documents\\py\\web2py\\gluon\\tools.py", line 4304, in add_group\n    role=role, description=description)\n  File "C:\\Users\\s\\Anaconda3\\envs\\py2\\lib\\site-packages\\pydal\\objects.py", line 728, in insert\n    ret = self._db._adapter.insert(self, self._listify(fields))\n  File "C:\\Users\\s\\Anaconda3\\envs\\py2\\lib\\site-packages\\pydal\\adapters\\base.py", line 746, in insert\n    raise e\nOperationalError: no such table: auth_group\n'
p276
s.